; Function Attrs: mustprogress uwtable
define noundef double @_ZNK8QuantLib21NoArbSabrSmileSection18digitalOptionPriceEdNS_6Option4TypeEdd(ptr nocapture noundef nonnull readonly align 8 dereferenceable(128) %this, double noundef %strike, i32 noundef %type, double noundef %discount, double %0) unnamed_addr #6 align 2 {
entry:
  %model_ = getelementptr inbounds nuw i8, ptr %this, i64 72
  %1 = load ptr, ptr %model_, align 8, !tbaa !57
  %cmp.not.i = icmp eq ptr %1, null
  br i1 %cmp.not.i, label %cond.false.i, label %_ZNK5boost10shared_ptrIN8QuantLib14NoArbSabrModelEEptEv.exit, !prof !67

cond.false.i:                                     ; preds = %entry
  tail call void @_ZN5boost16assertion_failedEPKcS1_S1_l(ptr noundef nonnull @.str.13, ptr noundef nonnull @__PRETTY_FUNCTION__._ZNK5boost10shared_ptrIN8QuantLib14NoArbSabrModelEEptEv, ptr noundef nonnull @.str.14, i64 noundef 784)
  %.pre.i = load ptr, ptr %model_, align 8, !tbaa !57
  br label %_ZNK5boost10shared_ptrIN8QuantLib14NoArbSabrModelEEptEv.exit

_ZNK5boost10shared_ptrIN8QuantLib14NoArbSabrModelEEptEv.exit: ; preds = %entry, %cond.false.i
  %2 = phi ptr [ %1, %entry ], [ %.pre.i, %cond.false.i ]
  %call3 = tail call noundef double @_ZNK8QuantLib14NoArbSabrModel18digitalOptionPriceEd(ptr noundef nonnull align 8 dereferenceable(112) %2, double noundef %strike)
  %cmp = icmp eq i32 %type, 1
  %sub = fsub double 1.000000e+00, %call3
  %cond = select i1 %cmp, double %call3, double %sub
  %mul = fmul double %discount, %cond
  ret double %mul
}